target datalayout = "e-m:e-p270:32:32-p271:32:32-p272:64:64-i64:64-i128:128-f80:128-n8:16:32:64-S128"
target triple = "x86_64-unknown-linux-gnu"

%struct.anon = type { i32, i16, i16 }
%struct.ResourceData = type { ptr, ptr, ptr, ptr, i32, i32, ptr, i32, i32, i8, i8, i8, i8 }
%"class.icu_75::ResourceDataValue" = type <{ %"class.icu_75::ResourceValue", ptr, ptr, i32, %"class.icu_75::ResourceTracer", [3 x i8] }>
%"class.icu_75::ResourceValue" = type { %"class.icu_75::UObject" }
%"class.icu_75::UObject" = type { ptr }
%"class.icu_75::ResourceTracer" = type { i8 }
%"class.icu_75::ResourceArray" = type <{ ptr, ptr, i32, %"class.icu_75::ResourceTracer", [3 x i8] }>
%"class.icu_75::ConstChar16Ptr" = type { ptr }
%"class.icu_75::UnicodeString" = type { %"class.icu_75::Replaceable", %"union.icu_75::UnicodeString::StackBufferOrFields" }
%"class.icu_75::Replaceable" = type { %"class.icu_75::UObject" }
%"union.icu_75::UnicodeString::StackBufferOrFields" = type { %struct.anon.2, [32 x i8] }
%struct.anon.2 = type { i16, i32, i32, ptr }

@_ZL12gEmptyString = internal constant %struct.anon zeroinitializer, align 4
@.str.10 = private unnamed_addr constant [7 x i8] c"string\00", align 1

; Function Attrs: mustprogress uwtable
define ptr @res_getStringNoTrace_75(ptr noundef %pResData, i32 noundef %res, ptr noundef %pLength) #0 {
entry:
  %pResData.addr = alloca ptr, align 8
  %res.addr = alloca i32, align 4
  %pLength.addr = alloca ptr, align 8
  %p = alloca ptr, align 8
  %offset = alloca i32, align 4
  %length = alloca i32, align 4
  %first = alloca i32, align 4
  %p32 = alloca ptr, align 8
  store ptr %pResData, ptr %pResData.addr, align 8
  store i32 %res, ptr %res.addr, align 4
  store ptr %pLength, ptr %pLength.addr, align 8
  %0 = load i32, ptr %res.addr, align 4
  %and = and i32 %0, 268435455
  store i32 %and, ptr %offset, align 4
  %1 = load i32, ptr %res.addr, align 4
  %shr = lshr i32 %1, 28
  %cmp = icmp eq i32 %shr, 6
  br i1 %cmp, label %if.then, label %if.else30

if.then:                                          ; preds = %entry
  %2 = load i32, ptr %offset, align 4
  %3 = load ptr, ptr %pResData.addr, align 8
  %poolStringIndexLimit = getelementptr inbounds %struct.ResourceData, ptr %3, i32 0, i32 7
  %4 = load i32, ptr %poolStringIndexLimit, align 8
  %cmp1 = icmp slt i32 %2, %4
  br i1 %cmp1, label %if.then2, label %if.else

if.then2:                                         ; preds = %if.then
  %5 = load ptr, ptr %pResData.addr, align 8
  %poolBundleStrings = getelementptr inbounds %struct.ResourceData, ptr %5, i32 0, i32 6
  %6 = load ptr, ptr %poolBundleStrings, align 8
  %7 = load i32, ptr %offset, align 4
  %idx.ext = zext i32 %7 to i64
  %add.ptr = getelementptr inbounds i16, ptr %6, i64 %idx.ext
  store ptr %add.ptr, ptr %p, align 8
  br label %if.end

if.else:                                          ; preds = %if.then
  %8 = load ptr, ptr %pResData.addr, align 8
  %p16BitUnits = getelementptr inbounds %struct.ResourceData, ptr %8, i32 0, i32 2
  %9 = load ptr, ptr %p16BitUnits, align 8
  %10 = load i32, ptr %offset, align 4
  %11 = load ptr, ptr %pResData.addr, align 8
  %poolStringIndexLimit3 = getelementptr inbounds %struct.ResourceData, ptr %11, i32 0, i32 7
  %12 = load i32, ptr %poolStringIndexLimit3, align 8
  %sub = sub i32 %10, %12
  %idx.ext4 = zext i32 %sub to i64
  %add.ptr5 = getelementptr inbounds i16, ptr %9, i64 %idx.ext4
  store ptr %add.ptr5, ptr %p, align 8
  br label %if.end

if.end:                                           ; preds = %if.else, %if.then2
  %13 = load ptr, ptr %p, align 8
  %14 = load i16, ptr %13, align 2
  %conv = zext i16 %14 to i32
  store i32 %conv, ptr %first, align 4
  %15 = load i32, ptr %first, align 4
  %and6 = and i32 %15, -1024
  %cmp7 = icmp eq i32 %and6, 56320
  br i1 %cmp7, label %if.else9, label %if.then8

if.then8:                                         ; preds = %if.end
  %16 = load ptr, ptr %p, align 8
  %call = call i32 @u_strlen_75(ptr noundef %16)
  store i32 %call, ptr %length, align 4
  br label %if.end29

if.else9:                                         ; preds = %if.end
  %17 = load i32, ptr %first, align 4
  %cmp10 = icmp slt i32 %17, 57327
  br i1 %cmp10, label %if.then11, label %if.else13

if.then11:                                        ; preds = %if.else9
  %18 = load i32, ptr %first, align 4
  %and12 = and i32 %18, 1023
  store i32 %and12, ptr %length, align 4
  %19 = load ptr, ptr %p, align 8
  %incdec.ptr = getelementptr inbounds i16, ptr %19, i32 1
  store ptr %incdec.ptr, ptr %p, align 8
  br label %if.end28

if.else13:                                        ; preds = %if.else9
  %20 = load i32, ptr %first, align 4
  %cmp14 = icmp slt i32 %20, 57343
  br i1 %cmp14, label %if.then15, label %if.else19

if.then15:                                        ; preds = %if.else13
  %21 = load i32, ptr %first, align 4
  %sub16 = sub nsw i32 %21, 57327
  %shl = shl i32 %sub16, 16
  %22 = load ptr, ptr %p, align 8
  %arrayidx = getelementptr inbounds i16, ptr %22, i64 1
  %23 = load i16, ptr %arrayidx, align 2
  %conv17 = zext i16 %23 to i32
  %or = or i32 %shl, %conv17
  store i32 %or, ptr %length, align 4
  %24 = load ptr, ptr %p, align 8
  %add.ptr18 = getelementptr inbounds i16, ptr %24, i64 2
  store ptr %add.ptr18, ptr %p, align 8
  br label %if.end27

if.else19:                                        ; preds = %if.else13
  %25 = load ptr, ptr %p, align 8
  %arrayidx20 = getelementptr inbounds i16, ptr %25, i64 1
  %26 = load i16, ptr %arrayidx20, align 2
  %conv21 = zext i16 %26 to i32
  %shl22 = shl i32 %conv21, 16
  %27 = load ptr, ptr %p, align 8
  %arrayidx23 = getelementptr inbounds i16, ptr %27, i64 2
  %28 = load i16, ptr %arrayidx23, align 2
  %conv24 = zext i16 %28 to i32
  %or25 = or i32 %shl22, %conv24
  store i32 %or25, ptr %length, align 4
  %29 = load ptr, ptr %p, align 8
  %add.ptr26 = getelementptr inbounds i16, ptr %29, i64 3
  store ptr %add.ptr26, ptr %p, align 8
  br label %if.end27

if.end27:                                         ; preds = %if.else19, %if.then15
  br label %if.end28

if.end28:                                         ; preds = %if.end27, %if.then11
  br label %if.end29

if.end29:                                         ; preds = %if.end28, %if.then8
  br label %if.end39

if.else30:                                        ; preds = %entry
  %30 = load i32, ptr %res.addr, align 4
  %31 = load i32, ptr %offset, align 4
  %cmp31 = icmp eq i32 %30, %31
  br i1 %cmp31, label %if.then32, label %if.else37

if.then32:                                        ; preds = %if.else30
  %32 = load i32, ptr %res.addr, align 4
  %cmp33 = icmp eq i32 %32, 0
  br i1 %cmp33, label %cond.true, label %cond.false

cond.true:                                        ; preds = %if.then32
  br label %cond.end

cond.false:                                       ; preds = %if.then32
  %33 = load ptr, ptr %pResData.addr, align 8
  %pRoot = getelementptr inbounds %struct.ResourceData, ptr %33, i32 0, i32 1
  %34 = load ptr, ptr %pRoot, align 8
  %35 = load i32, ptr %res.addr, align 4
  %idx.ext34 = zext i32 %35 to i64
  %add.ptr35 = getelementptr inbounds i32, ptr %34, i64 %idx.ext34
  br label %cond.end

cond.end:                                         ; preds = %cond.false, %cond.true
  %cond = phi ptr [ @_ZL12gEmptyString, %cond.true ], [ %add.ptr35, %cond.false ]
  store ptr %cond, ptr %p32, align 8
  %36 = load ptr, ptr %p32, align 8
  %incdec.ptr36 = getelementptr inbounds i32, ptr %36, i32 1
  store ptr %incdec.ptr36, ptr %p32, align 8
  %37 = load i32, ptr %36, align 4
  store i32 %37, ptr %length, align 4
  %38 = load ptr, ptr %p32, align 8
  store ptr %38, ptr %p, align 8
  br label %if.end38

if.else37:                                        ; preds = %if.else30
  store ptr null, ptr %p, align 8
  store i32 0, ptr %length, align 4
  br label %if.end38

if.end38:                                         ; preds = %if.else37, %cond.end
  br label %if.end39

if.end39:                                         ; preds = %if.end38, %if.end29
  %39 = load ptr, ptr %pLength.addr, align 8
  %tobool = icmp ne ptr %39, null
  br i1 %tobool, label %if.then40, label %if.end41

if.then40:                                        ; preds = %if.end39
  %40 = load i32, ptr %length, align 4
  %41 = load ptr, ptr %pLength.addr, align 8
  store i32 %40, ptr %41, align 4
  br label %if.end41

if.end41:                                         ; preds = %if.then40, %if.end39
  %42 = load ptr, ptr %p, align 8
  ret ptr %42
}

; Function Attrs: mustprogress nounwind uwtable
define linkonce_odr void @_ZNK6icu_7514ResourceTracer5traceEPKc(ptr noundef nonnull align 1 dereferenceable(1) %this, ptr noundef %0) #2 comdat align 2 {
entry:
  %this.addr = alloca ptr, align 8
  %.addr = alloca ptr, align 8
  store ptr %this, ptr %this.addr, align 8
  store ptr %0, ptr %.addr, align 8
  ret void
}

; Function Attrs: mustprogress nounwind uwtable
define linkonce_odr void @_ZN6icu_7514ConstChar16PtrD2Ev(ptr noundef nonnull align 8 dereferenceable(8) %this) unnamed_addr #2 comdat align 2 {
entry:
  %this.addr = alloca ptr, align 8
  store ptr %this, ptr %this.addr, align 8
  %this1 = load ptr, ptr %this.addr, align 8
  %p_ = getelementptr inbounds %"class.icu_75::ConstChar16Ptr", ptr %this1, i32 0, i32 0
  %0 = load ptr, ptr %p_, align 8
  call void asm sideeffect "", "rm,~{memory},~{dirflag},~{fpsr},~{flags}"(ptr %0) #8, !srcloc !6
  ret void
}

; Function Attrs: mustprogress nounwind uwtable
define linkonce_odr void @_ZN6icu_7514ConstChar16PtrC2EPKDs(ptr noundef nonnull align 8 dereferenceable(8) %this, ptr noundef %p) unnamed_addr #2 comdat align 2 {
entry:
  %this.addr = alloca ptr, align 8
  %p.addr = alloca ptr, align 8
  store ptr %this, ptr %this.addr, align 8
  store ptr %p, ptr %p.addr, align 8
  %this1 = load ptr, ptr %this.addr, align 8
  %p_ = getelementptr inbounds %"class.icu_75::ConstChar16Ptr", ptr %this1, i32 0, i32 0
  %0 = load ptr, ptr %p.addr, align 8
  store ptr %0, ptr %p_, align 8
  ret void
}

; Function Attrs: mustprogress uwtable
define linkonce_odr noundef ptr @_ZN6icu_7513res_getStringERKNS_14ResourceTracerEPK12ResourceDatajPi(ptr noundef nonnull align 1 dereferenceable(1) %traceInfo, ptr noundef %pResData, i32 noundef %res, ptr noundef %pLength) #0 comdat {
entry:
  %traceInfo.addr = alloca ptr, align 8
  %pResData.addr = alloca ptr, align 8
  %res.addr = alloca i32, align 4
  %pLength.addr = alloca ptr, align 8
  store ptr %traceInfo, ptr %traceInfo.addr, align 8
  store ptr %pResData, ptr %pResData.addr, align 8
  store i32 %res, ptr %res.addr, align 4
  store ptr %pLength, ptr %pLength.addr, align 8
  %0 = load ptr, ptr %traceInfo.addr, align 8
  call void @_ZNK6icu_7514ResourceTracer5traceEPKc(ptr noundef nonnull align 1 dereferenceable(1) %0, ptr noundef @.str.10)
  %1 = load ptr, ptr %pResData.addr, align 8
  %2 = load i32, ptr %res.addr, align 4
  %3 = load ptr, ptr %pLength.addr, align 8
  %call = call ptr @res_getStringNoTrace_75(ptr noundef %1, i32 noundef %2, ptr noundef %3)
  ret ptr %call
}

; Function Attrs: mustprogress nounwind uwtable
define internal noundef signext i8 @_ZL9U_FAILURE10UErrorCode(i32 noundef %code) #2 {
entry:
  %code.addr = alloca i32, align 4
  store i32 %code, ptr %code.addr, align 4
  %0 = load i32, ptr %code.addr, align 4
  %cmp = icmp sgt i32 %0, 0
  %conv = zext i1 %cmp to i8
  ret i8 %conv
}

; Function Attrs: mustprogress nounwind uwtable
define linkonce_odr noundef nonnull align 8 dereferenceable(64) ptr @_ZNK6icu_7517ResourceDataValue7getDataEv(ptr noundef nonnull align 8 dereferenceable(29) %this) #2 comdat align 2 {
entry:
  %this.addr = alloca ptr, align 8
  store ptr %this, ptr %this.addr, align 8
  %this1 = load ptr, ptr %this.addr, align 8
  %pResData = getelementptr inbounds %"class.icu_75::ResourceDataValue", ptr %this1, i32 0, i32 1
  %0 = load ptr, ptr %pResData, align 8
  ret ptr %0
}

; Function Attrs: mustprogress uwtable
define noundef i32 @_ZNK6icu_7517ResourceDataValue29getStringArrayOrStringAsArrayEPNS_13UnicodeStringEiR10UErrorCode(ptr noundef nonnull align 8 dereferenceable(29) %this, ptr noundef %dest, i32 noundef %capacity, ptr noundef nonnull align 4 dereferenceable(4) %errorCode) unnamed_addr #0 align 2 personality ptr @__gxx_personality_v0 {
entry:
  %retval = alloca i32, align 4
  %this.addr = alloca ptr, align 8
  %dest.addr = alloca ptr, align 8
  %capacity.addr = alloca i32, align 4
  %errorCode.addr = alloca ptr, align 8
  %ref.tmp = alloca %"class.icu_75::ResourceArray", align 8
  %sLength = alloca i32, align 4
  %s = alloca ptr, align 8
  %agg.tmp = alloca %"class.icu_75::ConstChar16Ptr", align 8
  %exn.slot = alloca ptr, align 8
  %ehselector.slot = alloca i32, align 4
  store ptr %this, ptr %this.addr, align 8
  store ptr %dest, ptr %dest.addr, align 8
  store i32 %capacity, ptr %capacity.addr, align 4
  store ptr %errorCode, ptr %errorCode.addr, align 8
  %this1 = load ptr, ptr %this.addr, align 8
  %res = getelementptr inbounds %"class.icu_75::ResourceDataValue", ptr %this1, i32 0, i32 3
  %0 = load i32, ptr %res, align 8
  %cmp = icmp eq i32 %0, 8
  br i1 %cmp, label %if.then, label %lor.lhs.false

lor.lhs.false:                                    ; preds = %entry
  %res2 = getelementptr inbounds %"class.icu_75::ResourceDataValue", ptr %this1, i32 0, i32 3
  %1 = load i32, ptr %res2, align 8
  %cmp3 = icmp eq i32 %1, 9
  br i1 %cmp3, label %if.then, label %if.end

if.then:                                          ; preds = %lor.lhs.false, %entry
  %call = call noundef nonnull align 8 dereferenceable(64) ptr @_ZNK6icu_7517ResourceDataValue7getDataEv(ptr noundef nonnull align 8 dereferenceable(29) %this1)
  %2 = load ptr, ptr %errorCode.addr, align 8
  %vtable = load ptr, ptr %this1, align 8
  %vfn = getelementptr inbounds ptr, ptr %vtable, i64 10
  %3 = load ptr, ptr %vfn, align 8
  call void %3(ptr sret(%"class.icu_75::ResourceArray") align 8 %ref.tmp, ptr noundef nonnull align 8 dereferenceable(29) %this1, ptr noundef nonnull align 4 dereferenceable(4) %2)
  %4 = load ptr, ptr %dest.addr, align 8
  %5 = load i32, ptr %capacity.addr, align 4
  %6 = load ptr, ptr %errorCode.addr, align 8
  %call4 = call noundef i32 @_ZN12_GLOBAL__N_114getStringArrayEPK12ResourceDataRKN6icu_7513ResourceArrayEPNS3_13UnicodeStringEiR10UErrorCode(ptr noundef %call, ptr noundef nonnull align 8 dereferenceable(21) %ref.tmp, ptr noundef %4, i32 noundef %5, ptr noundef nonnull align 4 dereferenceable(4) %6)
  store i32 %call4, ptr %retval, align 4
  br label %return

if.end:                                           ; preds = %lor.lhs.false
  %7 = load ptr, ptr %errorCode.addr, align 8
  %8 = load i32, ptr %7, align 4
  %call5 = call noundef signext i8 @_ZL9U_FAILURE10UErrorCode(i32 noundef %8)
  %tobool = icmp ne i8 %call5, 0
  br i1 %tobool, label %if.then6, label %if.end7

if.then6:                                         ; preds = %if.end
  store i32 0, ptr %retval, align 4
  br label %return

if.end7:                                          ; preds = %if.end
  %9 = load ptr, ptr %dest.addr, align 8
  %cmp8 = icmp eq ptr %9, null
  br i1 %cmp8, label %cond.true, label %cond.false

cond.true:                                        ; preds = %if.end7
  %10 = load i32, ptr %capacity.addr, align 4
  %cmp9 = icmp ne i32 %10, 0
  br i1 %cmp9, label %if.then11, label %if.end12

cond.false:                                       ; preds = %if.end7
  %11 = load i32, ptr %capacity.addr, align 4
  %cmp10 = icmp slt i32 %11, 0
  br i1 %cmp10, label %if.then11, label %if.end12

if.then11:                                        ; preds = %cond.false, %cond.true
  %12 = load ptr, ptr %errorCode.addr, align 8
  store i32 1, ptr %12, align 4
  store i32 0, ptr %retval, align 4
  br label %return

if.end12:                                         ; preds = %cond.false, %cond.true
  %13 = load i32, ptr %capacity.addr, align 4
  %cmp13 = icmp slt i32 %13, 1
  br i1 %cmp13, label %if.then14, label %if.end15

if.then14:                                        ; preds = %if.end12
  %14 = load ptr, ptr %errorCode.addr, align 8
  store i32 15, ptr %14, align 4
  store i32 1, ptr %retval, align 4
  br label %return

if.end15:                                         ; preds = %if.end12
  %fTraceInfo = getelementptr inbounds %"class.icu_75::ResourceDataValue", ptr %this1, i32 0, i32 4
  %call16 = call noundef nonnull align 8 dereferenceable(64) ptr @_ZNK6icu_7517ResourceDataValue7getDataEv(ptr noundef nonnull align 8 dereferenceable(29) %this1)
  %res17 = getelementptr inbounds %"class.icu_75::ResourceDataValue", ptr %this1, i32 0, i32 3
  %15 = load i32, ptr %res17, align 8
  %call18 = call noundef ptr @_ZN6icu_7513res_getStringERKNS_14ResourceTracerEPK12ResourceDatajPi(ptr noundef nonnull align 1 dereferenceable(1) %fTraceInfo, ptr noundef %call16, i32 noundef %15, ptr noundef %sLength)
  store ptr %call18, ptr %s, align 8
  %16 = load ptr, ptr %s, align 8
  %cmp19 = icmp ne ptr %16, null
  br i1 %cmp19, label %if.then20, label %if.end22

if.then20:                                        ; preds = %if.end15
  %17 = load ptr, ptr %dest.addr, align 8
  %arrayidx = getelementptr inbounds %"class.icu_75::UnicodeString", ptr %17, i64 0
  %18 = load ptr, ptr %s, align 8
  call void @_ZN6icu_7514ConstChar16PtrC2EPKDs(ptr noundef nonnull align 8 dereferenceable(8) %agg.tmp, ptr noundef %18)
  %19 = load i32, ptr %sLength, align 4
  %call21 = invoke noundef nonnull align 8 dereferenceable(64) ptr @_ZN6icu_7513UnicodeString5setToEaNS_14ConstChar16PtrEi(ptr noundef nonnull align 8 dereferenceable(64) %arrayidx, i8 noundef signext 1, ptr noundef %agg.tmp, i32 noundef %19)
          to label %invoke.cont unwind label %lpad

invoke.cont:                                      ; preds = %if.then20
  call void @_ZN6icu_7514ConstChar16PtrD2Ev(ptr noundef nonnull align 8 dereferenceable(8) %agg.tmp) #8
  store i32 1, ptr %retval, align 4
  br label %return

lpad:                                             ; preds = %if.then20
  %20 = landingpad { ptr, i32 }
          cleanup
  %21 = extractvalue { ptr, i32 } %20, 0
  store ptr %21, ptr %exn.slot, align 8
  %22 = extractvalue { ptr, i32 } %20, 1
  store i32 %22, ptr %ehselector.slot, align 4
  call void @_ZN6icu_7514ConstChar16PtrD2Ev(ptr noundef nonnull align 8 dereferenceable(8) %agg.tmp) #8
  br label %eh.resume

if.end22:                                         ; preds = %if.end15
  %23 = load ptr, ptr %errorCode.addr, align 8
  store i32 17, ptr %23, align 4
  store i32 0, ptr %retval, align 4
  br label %return

return:                                           ; preds = %if.end22, %invoke.cont, %if.then14, %if.then11, %if.then6, %if.then
  %24 = load i32, ptr %retval, align 4
  ret i32 %24

eh.resume:                                        ; preds = %lpad
  %exn = load ptr, ptr %exn.slot, align 8
  %sel = load i32, ptr %ehselector.slot, align 4
  %lpad.val = insertvalue { ptr, i32 } poison, ptr %exn, 0
  %lpad.val23 = insertvalue { ptr, i32 } %lpad.val, i32 %sel, 1
  resume { ptr, i32 } %lpad.val23
}