; Function Attrs: mustprogress uwtable
define noundef i32 @_ZNK6icu_7517ResourceDataValue29getStringArrayOrStringAsArrayEPNS_13UnicodeStringEiR10UErrorCode(ptr noundef nonnull align 8 dereferenceable(29) %this, ptr noundef %dest, i32 noundef %capacity, ptr noundef nonnull align 4 dereferenceable(4) %errorCode) unnamed_addr #0 align 2 personality ptr @__gxx_personality_v0 {
entry:
  %ref.tmp = alloca %"class.icu_75::ResourceArray", align 8
  %agg.tmp = alloca %"class.icu_75::ConstChar16Ptr", align 8
  %res = getelementptr inbounds i8, ptr %this, i64 24
  %0 = load i32, ptr %res, align 8
  %1 = and i32 %0, -2
  %switch = icmp eq i32 %1, 8
  br i1 %switch, label %if.then, label %if.end

if.then:                                          ; preds = %entry
  %pResData.i = getelementptr inbounds i8, ptr %this, i64 8
  %2 = load ptr, ptr %pResData.i, align 8
  %vtable = load ptr, ptr %this, align 8
  %vfn = getelementptr inbounds i8, ptr %vtable, i64 80
  %3 = load ptr, ptr %vfn, align 8
  call void %3(ptr nonnull sret(%"class.icu_75::ResourceArray") align 8 %ref.tmp, ptr noundef nonnull align 8 dereferenceable(29) %this, ptr noundef nonnull align 4 dereferenceable(4) %errorCode)
  %call4 = call fastcc noundef i32 @_ZN12_GLOBAL__N_114getStringArrayEPK12ResourceDataRKN6icu_7513ResourceArrayEPNS3_13UnicodeStringEiR10UErrorCode(ptr noundef nonnull %2, ptr noundef nonnull align 8 dereferenceable(21) %ref.tmp, ptr noundef %dest, i32 noundef %capacity, ptr noundef nonnull align 4 dereferenceable(4) %errorCode)
  br label %return

if.end:                                           ; preds = %entry
  %4 = load i32, ptr %errorCode, align 4
  %cmp.i = icmp slt i32 %4, 1
  br i1 %cmp.i, label %if.end7, label %return

if.end7:                                          ; preds = %if.end
  %cmp8 = icmp eq ptr %dest, null
  br i1 %cmp8, label %cond.true, label %cond.false

cond.true:                                        ; preds = %if.end7
  %cmp9.not = icmp eq i32 %capacity, 0
  br i1 %cmp9.not, label %if.then14, label %if.then11

cond.false:                                       ; preds = %if.end7
  %cmp10 = icmp slt i32 %capacity, 0
  br i1 %cmp10, label %if.then11, label %if.end12

if.then11:                                        ; preds = %cond.false, %cond.true
  store i32 1, ptr %errorCode, align 4
  br label %return

if.end12:                                         ; preds = %cond.false
  %cmp13 = icmp eq i32 %capacity, 0
  br i1 %cmp13, label %if.then14, label %if.end15

if.then14:                                        ; preds = %cond.true, %if.end12
  store i32 15, ptr %errorCode, align 4
  br label %return

if.end15:                                         ; preds = %if.end12
  %pResData.i12 = getelementptr inbounds i8, ptr %this, i64 8
  %5 = load ptr, ptr %pResData.i12, align 8
  %shr.mask.i.i = and i32 %0, -268435456
  %cmp.i.i = icmp eq i32 %shr.mask.i.i, 1610612736
  br i1 %cmp.i.i, label %if.then.i.i, label %if.else30.i.i

if.then.i.i:                                      ; preds = %if.end15
  %and.i.i = and i32 %0, 268435455
  %poolStringIndexLimit.i.i = getelementptr inbounds i8, ptr %5, i64 48
  %6 = load i32, ptr %poolStringIndexLimit.i.i, align 8
  %cmp1.i.i = icmp slt i32 %and.i.i, %6
  %sub.i.i = select i1 %cmp1.i.i, i32 0, i32 %6
  %sub.sink.i.i = sub i32 %and.i.i, %sub.i.i
  %.sink.in.i.v.i = select i1 %cmp1.i.i, i64 40, i64 16
  %.sink.in.i.i = getelementptr inbounds i8, ptr %5, i64 %.sink.in.i.v.i
  %.sink.i.i = load ptr, ptr %.sink.in.i.i, align 8
  %idx.ext4.i.i = zext i32 %sub.sink.i.i to i64
  %add.ptr5.i.i = getelementptr inbounds i16, ptr %.sink.i.i, i64 %idx.ext4.i.i
  %7 = load i16, ptr %add.ptr5.i.i, align 2
  %conv.i.i = zext i16 %7 to i32
  %and6.i.i = and i32 %conv.i.i, 64512
  %cmp7.i.i = icmp eq i32 %and6.i.i, 56320
  br i1 %cmp7.i.i, label %if.else9.i.i, label %if.then8.i.i

if.then8.i.i:                                     ; preds = %if.then.i.i
  %call.i.i = tail call i32 @u_strlen_75(ptr noundef nonnull %add.ptr5.i.i)
  br label %if.then20

if.else9.i.i:                                     ; preds = %if.then.i.i
  %cmp10.i.i = icmp ult i16 %7, -8209
  br i1 %cmp10.i.i, label %if.then11.i.i, label %if.else13.i.i

if.then11.i.i:                                    ; preds = %if.else9.i.i
  %and12.i.i = and i32 %conv.i.i, 1023
  %incdec.ptr.i.i = getelementptr inbounds i8, ptr %add.ptr5.i.i, i64 2
  br label %if.then20

if.else13.i.i:                                    ; preds = %if.else9.i.i
  %cmp14.i.i = icmp ult i16 %7, -8193
  br i1 %cmp14.i.i, label %if.then15.i.i, label %if.else19.i.i

if.then15.i.i:                                    ; preds = %if.else13.i.i
  %sub16.i.i = shl nuw i32 %conv.i.i, 16
  %shl.i.i = add nsw i32 %sub16.i.i, 537985024
  %arrayidx.i.i = getelementptr inbounds i8, ptr %add.ptr5.i.i, i64 2
  %8 = load i16, ptr %arrayidx.i.i, align 2
  %conv17.i.i = zext i16 %8 to i32
  %or.i.i = or disjoint i32 %shl.i.i, %conv17.i.i
  %add.ptr18.i.i = getelementptr inbounds i8, ptr %add.ptr5.i.i, i64 4
  br label %if.then20

if.else19.i.i:                                    ; preds = %if.else13.i.i
  %arrayidx20.i.i = getelementptr inbounds i8, ptr %add.ptr5.i.i, i64 2
  %9 = load i16, ptr %arrayidx20.i.i, align 2
  %conv21.i.i = zext i16 %9 to i32
  %shl22.i.i = shl nuw i32 %conv21.i.i, 16
  %arrayidx23.i.i = getelementptr inbounds i8, ptr %add.ptr5.i.i, i64 4
  %10 = load i16, ptr %arrayidx23.i.i, align 2
  %conv24.i.i = zext i16 %10 to i32
  %or25.i.i = or disjoint i32 %shl22.i.i, %conv24.i.i
  %add.ptr26.i.i = getelementptr inbounds i8, ptr %add.ptr5.i.i, i64 6
  br label %if.then20

if.else30.i.i:                                    ; preds = %if.end15
  %cmp31.i.i = icmp ult i32 %0, 268435456
  br i1 %cmp31.i.i, label %if.then32.i.i, label %if.end22

if.then32.i.i:                                    ; preds = %if.else30.i.i
  %cmp33.i.i = icmp eq i32 %0, 0
  br i1 %cmp33.i.i, label %cond.end.i.i, label %cond.false.i.i

cond.false.i.i:                                   ; preds = %if.then32.i.i
  %pRoot.i.i = getelementptr inbounds i8, ptr %5, i64 8
  %11 = load ptr, ptr %pRoot.i.i, align 8
  %idx.ext34.i.i = zext nneg i32 %0 to i64
  %add.ptr35.i.i = getelementptr inbounds i32, ptr %11, i64 %idx.ext34.i.i
  br label %cond.end.i.i

cond.end.i.i:                                     ; preds = %cond.false.i.i, %if.then32.i.i
  %cond.i.i = phi ptr [ %add.ptr35.i.i, %cond.false.i.i ], [ @_ZL12gEmptyString, %if.then32.i.i ]
  %incdec.ptr36.i.i = getelementptr inbounds i8, ptr %cond.i.i, i64 4
  %12 = load i32, ptr %cond.i.i, align 4
  br label %if.then20

if.then20:                                        ; preds = %if.then11.i.i, %if.then15.i.i, %if.else19.i.i, %if.then8.i.i, %cond.end.i.i
  %length.0.i.i.ph = phi i32 [ %12, %cond.end.i.i ], [ %call.i.i, %if.then8.i.i ], [ %or25.i.i, %if.else19.i.i ], [ %or.i.i, %if.then15.i.i ], [ %and12.i.i, %if.then11.i.i ]
  %p.1.i.i.ph = phi ptr [ %incdec.ptr36.i.i, %cond.end.i.i ], [ %add.ptr5.i.i, %if.then8.i.i ], [ %add.ptr26.i.i, %if.else19.i.i ], [ %add.ptr18.i.i, %if.then15.i.i ], [ %incdec.ptr.i.i, %if.then11.i.i ]
  store ptr %p.1.i.i.ph, ptr %agg.tmp, align 8
  %call21 = invoke noundef nonnull align 8 dereferenceable(64) ptr @_ZN6icu_7513UnicodeString5setToEaNS_14ConstChar16PtrEi(ptr noundef nonnull align 8 dereferenceable(64) %dest, i8 noundef signext 1, ptr noundef nonnull %agg.tmp, i32 noundef %length.0.i.i.ph)
          to label %invoke.cont unwind label %lpad

invoke.cont:                                      ; preds = %if.then20
  %13 = load ptr, ptr %agg.tmp, align 8
  call void asm sideeffect "", "rm,~{memory},~{dirflag},~{fpsr},~{flags}"(ptr %13) #17, !srcloc !4
  br label %return

lpad:                                             ; preds = %if.then20
  %14 = landingpad { ptr, i32 }
          cleanup
  %15 = load ptr, ptr %agg.tmp, align 8
  call void asm sideeffect "", "rm,~{memory},~{dirflag},~{fpsr},~{flags}"(ptr %15) #17, !srcloc !4
  resume { ptr, i32 } %14

if.end22:                                         ; preds = %if.else30.i.i
  store i32 17, ptr %errorCode, align 4
  br label %return

return:                                           ; preds = %if.end, %if.end22, %invoke.cont, %if.then14, %if.then11, %if.then
  %retval.0 = phi i32 [ %call4, %if.then ], [ 0, %if.then11 ], [ 1, %if.then14 ], [ 1, %invoke.cont ], [ 0, %if.end22 ], [ 0, %if.end ]
  ret i32 %retval.0
}